target datalayout = "e-m:e-p270:32:32-p271:32:32-p272:64:64-i64:64-i128:128-f80:128-n8:16:32:64-S128"
target triple = "x86_64-unknown-linux-gnu"

%"class.google::protobuf::internal::EpsCopyInputStream" = type { ptr, ptr, ptr, i32, i32, ptr, [32 x i8], i64, i32, i32 }
%class.anon.0 = type { ptr }

; Function Attrs: mustprogress nounwind uwtable
define linkonce_odr hidden void @_ZN6google8protobuf8internal18EpsCopyInputStream14SetEndOfStreamEv(ptr noundef nonnull align 8 dereferenceable(88) %this) #5 comdat align 2 {
entry:
  %this.addr = alloca ptr, align 8
  store ptr %this, ptr %this.addr, align 8
  %this1 = load ptr, ptr %this.addr, align 8
  %last_tag_minus_1_ = getelementptr inbounds %"class.google::protobuf::internal::EpsCopyInputStream", ptr %this1, i32 0, i32 8
  store i32 1, ptr %last_tag_minus_1_, align 8
  ret void
}

; Function Attrs: mustprogress uwtable
define noundef ptr @_ZN6google8protobuf8internal18EpsCopyInputStream4NextEv(ptr noundef nonnull align 8 dereferenceable(88) %this) #4 align 2 {
entry:
  %retval = alloca ptr, align 8
  %this.addr = alloca ptr, align 8
  %p = alloca ptr, align 8
  %ref.tmp = alloca i32, align 4
  store ptr %this, ptr %this.addr, align 8
  %this1 = load ptr, ptr %this.addr, align 8
  %call = call noundef ptr @_ZN6google8protobuf8internal18EpsCopyInputStream10NextBufferEii(ptr noundef nonnull align 8 dereferenceable(88) %this1, i32 noundef 0, i32 noundef -1)
  store ptr %call, ptr %p, align 8
  %0 = load ptr, ptr %p, align 8
  %cmp = icmp eq ptr %0, null
  br i1 %cmp, label %if.then, label %if.end

if.then:                                          ; preds = %entry
  %buffer_end_ = getelementptr inbounds %"class.google::protobuf::internal::EpsCopyInputStream", ptr %this1, i32 0, i32 1
  %1 = load ptr, ptr %buffer_end_, align 8
  %limit_end_ = getelementptr inbounds %"class.google::protobuf::internal::EpsCopyInputStream", ptr %this1, i32 0, i32 0
  store ptr %1, ptr %limit_end_, align 8
  call void @_ZN6google8protobuf8internal18EpsCopyInputStream14SetEndOfStreamEv(ptr noundef nonnull align 8 dereferenceable(88) %this1)
  store ptr null, ptr %retval, align 8
  br label %return

if.end:                                           ; preds = %entry
  %buffer_end_2 = getelementptr inbounds %"class.google::protobuf::internal::EpsCopyInputStream", ptr %this1, i32 0, i32 1
  %2 = load ptr, ptr %buffer_end_2, align 8
  %3 = load ptr, ptr %p, align 8
  %sub.ptr.lhs.cast = ptrtoint ptr %2 to i64
  %sub.ptr.rhs.cast = ptrtoint ptr %3 to i64
  %sub.ptr.sub = sub i64 %sub.ptr.lhs.cast, %sub.ptr.rhs.cast
  %limit_ = getelementptr inbounds %"class.google::protobuf::internal::EpsCopyInputStream", ptr %this1, i32 0, i32 4
  %4 = load i32, ptr %limit_, align 4
  %conv = sext i32 %4 to i64
  %sub = sub nsw i64 %conv, %sub.ptr.sub
  %conv3 = trunc i64 %sub to i32
  store i32 %conv3, ptr %limit_, align 4
  %buffer_end_4 = getelementptr inbounds %"class.google::protobuf::internal::EpsCopyInputStream", ptr %this1, i32 0, i32 1
  %5 = load ptr, ptr %buffer_end_4, align 8
  store i32 0, ptr %ref.tmp, align 4
  %limit_5 = getelementptr inbounds %"class.google::protobuf::internal::EpsCopyInputStream", ptr %this1, i32 0, i32 4
  %call6 = call noundef nonnull align 4 dereferenceable(4) ptr @_ZSt3minIiERKT_S2_S2_(ptr noundef nonnull align 4 dereferenceable(4) %ref.tmp, ptr noundef nonnull align 4 dereferenceable(4) %limit_5)
  %6 = load i32, ptr %call6, align 4
  %idx.ext = sext i32 %6 to i64
  %add.ptr = getelementptr inbounds i8, ptr %5, i64 %idx.ext
  %limit_end_7 = getelementptr inbounds %"class.google::protobuf::internal::EpsCopyInputStream", ptr %this1, i32 0, i32 0
  store ptr %add.ptr, ptr %limit_end_7, align 8
  %7 = load ptr, ptr %p, align 8
  store ptr %7, ptr %retval, align 8
  br label %return

return:                                           ; preds = %if.end, %if.then
  %8 = load ptr, ptr %retval, align 8
  ret ptr %8
}

; Function Attrs: mustprogress uwtable
define internal void @"_ZZN6google8protobuf8internal18EpsCopyInputStream18ReadStringFallbackEPKciPNSt7__cxx1112basic_stringIcSt11char_traitsIcESaIcEEEENK3$_0clES4_i"(ptr noundef nonnull align 8 dereferenceable(8) %this, ptr noundef %p, i32 noundef %s) #4 align 2 {
entry:
  %this.addr = alloca ptr, align 8
  %p.addr = alloca ptr, align 8
  %s.addr = alloca i32, align 4
  store ptr %this, ptr %this.addr, align 8
  store ptr %p, ptr %p.addr, align 8
  store i32 %s, ptr %s.addr, align 4
  %this1 = load ptr, ptr %this.addr, align 8
  %0 = getelementptr inbounds %class.anon.0, ptr %this1, i32 0, i32 0
  %1 = load ptr, ptr %0, align 8
  %2 = load ptr, ptr %p.addr, align 8
  %3 = load i32, ptr %s.addr, align 4
  %conv = sext i32 %3 to i64
  %call = call noundef nonnull align 8 dereferenceable(32) ptr @_ZNSt7__cxx1112basic_stringIcSt11char_traitsIcESaIcEE6appendEPKcm(ptr noundef nonnull align 8 dereferenceable(32) %1, ptr noundef %2, i64 noundef %conv)
  ret void
}

; Function Attrs: mustprogress uwtable
define internal noundef ptr @"_ZN6google8protobuf8internal18EpsCopyInputStream10AppendSizeIZNS2_18ReadStringFallbackEPKciPNSt7__cxx1112basic_stringIcSt11char_traitsIcESaIcEEEE3$_0EES5_S5_iRKT_"(ptr noundef nonnull align 8 dereferenceable(88) %this, ptr noundef %ptr, i32 noundef %size, ptr noundef nonnull align 8 dereferenceable(8) %append) #4 align 2 {
entry:
  %retval = alloca ptr, align 8
  %this.addr = alloca ptr, align 8
  %ptr.addr = alloca ptr, align 8
  %size.addr = alloca i32, align 4
  %append.addr = alloca ptr, align 8
  %chunk_size = alloca i32, align 4
  store ptr %this, ptr %this.addr, align 8
  store ptr %ptr, ptr %ptr.addr, align 8
  store i32 %size, ptr %size.addr, align 4
  store ptr %append, ptr %append.addr, align 8
  %this1 = load ptr, ptr %this.addr, align 8
  %buffer_end_ = getelementptr inbounds %"class.google::protobuf::internal::EpsCopyInputStream", ptr %this1, i32 0, i32 1
  %0 = load ptr, ptr %buffer_end_, align 8
  %add.ptr = getelementptr inbounds i8, ptr %0, i64 16
  %1 = load ptr, ptr %ptr.addr, align 8
  %sub.ptr.lhs.cast = ptrtoint ptr %add.ptr to i64
  %sub.ptr.rhs.cast = ptrtoint ptr %1 to i64
  %sub.ptr.sub = sub i64 %sub.ptr.lhs.cast, %sub.ptr.rhs.cast
  %conv = trunc i64 %sub.ptr.sub to i32
  store i32 %conv, ptr %chunk_size, align 4
  br label %do.body

do.body:                                          ; preds = %do.cond, %entry
  %next_chunk_ = getelementptr inbounds %"class.google::protobuf::internal::EpsCopyInputStream", ptr %this1, i32 0, i32 2
  %2 = load ptr, ptr %next_chunk_, align 8
  %cmp = icmp eq ptr %2, null
  br i1 %cmp, label %if.then, label %if.end

if.then:                                          ; preds = %do.body
  store ptr null, ptr %retval, align 8
  br label %return

if.end:                                           ; preds = %do.body
  %3 = load ptr, ptr %append.addr, align 8
  %4 = load ptr, ptr %ptr.addr, align 8
  %5 = load i32, ptr %chunk_size, align 4
  call void @"_ZZN6google8protobuf8internal18EpsCopyInputStream18ReadStringFallbackEPKciPNSt7__cxx1112basic_stringIcSt11char_traitsIcESaIcEEEENK3$_0clES4_i"(ptr noundef nonnull align 8 dereferenceable(8) %3, ptr noundef %4, i32 noundef %5)
  %6 = load i32, ptr %chunk_size, align 4
  %7 = load ptr, ptr %ptr.addr, align 8
  %idx.ext = sext i32 %6 to i64
  %add.ptr2 = getelementptr inbounds i8, ptr %7, i64 %idx.ext
  store ptr %add.ptr2, ptr %ptr.addr, align 8
  %8 = load i32, ptr %chunk_size, align 4
  %9 = load i32, ptr %size.addr, align 4
  %sub = sub nsw i32 %9, %8
  store i32 %sub, ptr %size.addr, align 4
  %limit_ = getelementptr inbounds %"class.google::protobuf::internal::EpsCopyInputStream", ptr %this1, i32 0, i32 4
  %10 = load i32, ptr %limit_, align 4
  %cmp3 = icmp sle i32 %10, 16
  br i1 %cmp3, label %if.then4, label %if.end5

if.then4:                                         ; preds = %if.end
  store ptr null, ptr %retval, align 8
  br label %return

if.end5:                                          ; preds = %if.end
  %call = call noundef ptr @_ZN6google8protobuf8internal18EpsCopyInputStream4NextEv(ptr noundef nonnull align 8 dereferenceable(88) %this1)
  store ptr %call, ptr %ptr.addr, align 8
  %11 = load ptr, ptr %ptr.addr, align 8
  %cmp6 = icmp eq ptr %11, null
  br i1 %cmp6, label %if.then7, label %if.end8

if.then7:                                         ; preds = %if.end5
  store ptr null, ptr %retval, align 8
  br label %return

if.end8:                                          ; preds = %if.end5
  %12 = load ptr, ptr %ptr.addr, align 8
  %add.ptr9 = getelementptr inbounds i8, ptr %12, i64 16
  store ptr %add.ptr9, ptr %ptr.addr, align 8
  %buffer_end_10 = getelementptr inbounds %"class.google::protobuf::internal::EpsCopyInputStream", ptr %this1, i32 0, i32 1
  %13 = load ptr, ptr %buffer_end_10, align 8
  %add.ptr11 = getelementptr inbounds i8, ptr %13, i64 16
  %14 = load ptr, ptr %ptr.addr, align 8
  %sub.ptr.lhs.cast12 = ptrtoint ptr %add.ptr11 to i64
  %sub.ptr.rhs.cast13 = ptrtoint ptr %14 to i64
  %sub.ptr.sub14 = sub i64 %sub.ptr.lhs.cast12, %sub.ptr.rhs.cast13
  %conv15 = trunc i64 %sub.ptr.sub14 to i32
  store i32 %conv15, ptr %chunk_size, align 4
  br label %do.cond

do.cond:                                          ; preds = %if.end8
  %15 = load i32, ptr %size.addr, align 4
  %16 = load i32, ptr %chunk_size, align 4
  %cmp16 = icmp sgt i32 %15, %16
  br i1 %cmp16, label %do.body, label %do.end, !llvm.loop !14

do.end:                                           ; preds = %do.cond
  %17 = load ptr, ptr %append.addr, align 8
  %18 = load ptr, ptr %ptr.addr, align 8
  %19 = load i32, ptr %size.addr, align 4
  call void @"_ZZN6google8protobuf8internal18EpsCopyInputStream18ReadStringFallbackEPKciPNSt7__cxx1112basic_stringIcSt11char_traitsIcESaIcEEEENK3$_0clES4_i"(ptr noundef nonnull align 8 dereferenceable(8) %17, ptr noundef %18, i32 noundef %19)
  %20 = load ptr, ptr %ptr.addr, align 8
  %21 = load i32, ptr %size.addr, align 4
  %idx.ext17 = sext i32 %21 to i64
  %add.ptr18 = getelementptr inbounds i8, ptr %20, i64 %idx.ext17
  store ptr %add.ptr18, ptr %retval, align 8
  br label %return

return:                                           ; preds = %do.end, %if.then7, %if.then4, %if.then
  %22 = load ptr, ptr %retval, align 8
  ret ptr %22
}

; Function Attrs: mustprogress nounwind uwtable
define linkonce_odr noundef nonnull align 4 dereferenceable(4) ptr @_ZSt3minIiERKT_S2_S2_(ptr noundef nonnull align 4 dereferenceable(4) %__a, ptr noundef nonnull align 4 dereferenceable(4) %__b) #5 comdat {
entry:
  %retval = alloca ptr, align 8
  %__a.addr = alloca ptr, align 8
  %__b.addr = alloca ptr, align 8
  store ptr %__a, ptr %__a.addr, align 8
  store ptr %__b, ptr %__b.addr, align 8
  %0 = load ptr, ptr %__b.addr, align 8
  %1 = load i32, ptr %0, align 4
  %2 = load ptr, ptr %__a.addr, align 8
  %3 = load i32, ptr %2, align 4
  %cmp = icmp slt i32 %1, %3
  br i1 %cmp, label %if.then, label %if.end

if.then:                                          ; preds = %entry
  %4 = load ptr, ptr %__b.addr, align 8
  store ptr %4, ptr %retval, align 8
  br label %return

if.end:                                           ; preds = %entry
  %5 = load ptr, ptr %__a.addr, align 8
  store ptr %5, ptr %retval, align 8
  br label %return

return:                                           ; preds = %if.end, %if.then
  %6 = load ptr, ptr %retval, align 8
  ret ptr %6
}

; Function Attrs: mustprogress uwtable
define noundef ptr @_ZN6google8protobuf8internal18EpsCopyInputStream18ReadStringFallbackEPKciPNSt7__cxx1112basic_stringIcSt11char_traitsIcESaIcEEE(ptr noundef nonnull align 8 dereferenceable(88) %this, ptr noundef %ptr, i32 noundef %size, ptr noundef %str) #4 align 2 {
entry:
  %this.addr = alloca ptr, align 8
  %ptr.addr = alloca ptr, align 8
  %size.addr = alloca i32, align 4
  %str.addr = alloca ptr, align 8
  %ref.tmp = alloca i32, align 4
  %ref.tmp7 = alloca %class.anon.0, align 8
  store ptr %this, ptr %this.addr, align 8
  store ptr %ptr, ptr %ptr.addr, align 8
  store i32 %size, ptr %size.addr, align 4
  store ptr %str, ptr %str.addr, align 8
  %this1 = load ptr, ptr %this.addr, align 8
  %0 = load ptr, ptr %str.addr, align 8
  call void @_ZNSt7__cxx1112basic_stringIcSt11char_traitsIcESaIcEE5clearEv(ptr noundef nonnull align 8 dereferenceable(32) %0) #3
  %1 = load i32, ptr %size.addr, align 4
  %conv = sext i32 %1 to i64
  %buffer_end_ = getelementptr inbounds %"class.google::protobuf::internal::EpsCopyInputStream", ptr %this1, i32 0, i32 1
  %2 = load ptr, ptr %buffer_end_, align 8
  %3 = load ptr, ptr %ptr.addr, align 8
  %sub.ptr.lhs.cast = ptrtoint ptr %2 to i64
  %sub.ptr.rhs.cast = ptrtoint ptr %3 to i64
  %sub.ptr.sub = sub i64 %sub.ptr.lhs.cast, %sub.ptr.rhs.cast
  %limit_ = getelementptr inbounds %"class.google::protobuf::internal::EpsCopyInputStream", ptr %this1, i32 0, i32 4
  %4 = load i32, ptr %limit_, align 4
  %conv2 = sext i32 %4 to i64
  %add = add nsw i64 %sub.ptr.sub, %conv2
  %cmp = icmp sle i64 %conv, %add
  br i1 %cmp, label %if.then, label %if.end

if.then:                                          ; preds = %entry
  %5 = load ptr, ptr %str.addr, align 8
  %6 = load ptr, ptr %str.addr, align 8
  %call = call noundef i64 @_ZNKSt7__cxx1112basic_stringIcSt11char_traitsIcESaIcEE4sizeEv(ptr noundef nonnull align 8 dereferenceable(32) %6) #3
  store i32 50000000, ptr %ref.tmp, align 4
  %call4 = call noundef nonnull align 4 dereferenceable(4) ptr @_ZSt3minIiERKT_S2_S2_(ptr noundef nonnull align 4 dereferenceable(4) %size.addr, ptr noundef nonnull align 4 dereferenceable(4) %ref.tmp)
  %7 = load i32, ptr %call4, align 4
  %conv5 = sext i32 %7 to i64
  %add6 = add i64 %call, %conv5
  call void @_ZNSt7__cxx1112basic_stringIcSt11char_traitsIcESaIcEE7reserveEm(ptr noundef nonnull align 8 dereferenceable(32) %5, i64 noundef %add6)
  br label %if.end

if.end:                                           ; preds = %if.then, %entry
  %8 = load ptr, ptr %ptr.addr, align 8
  %9 = load i32, ptr %size.addr, align 4
  %10 = getelementptr inbounds %class.anon.0, ptr %ref.tmp7, i32 0, i32 0
  %11 = load ptr, ptr %str.addr, align 8
  store ptr %11, ptr %10, align 8
  %call8 = call noundef ptr @"_ZN6google8protobuf8internal18EpsCopyInputStream10AppendSizeIZNS2_18ReadStringFallbackEPKciPNSt7__cxx1112basic_stringIcSt11char_traitsIcESaIcEEEE3$_0EES5_S5_iRKT_"(ptr noundef nonnull align 8 dereferenceable(88) %this1, ptr noundef %8, i32 noundef %9, ptr noundef nonnull align 8 dereferenceable(8) %ref.tmp7)
  ret ptr %call8
}