; Function Attrs: mustprogress uwtable
define noundef ptr @_ZN6google8protobuf8internal18EpsCopyInputStream18ReadStringFallbackEPKciPNSt7__cxx1112basic_stringIcSt11char_traitsIcESaIcEEE(ptr noundef nonnull align 8 dereferenceable(88) %this, ptr noundef %ptr, i32 noundef %size, ptr noundef nonnull %str) local_unnamed_addr #4 align 2 {
entry:
  tail call void @_ZNSt7__cxx1112basic_stringIcSt11char_traitsIcESaIcEE5clearEv(ptr noundef nonnull align 8 dereferenceable(32) %str) #18
  %conv = sext i32 %size to i64
  %buffer_end_ = getelementptr inbounds nuw i8, ptr %this, i64 8
  %0 = load ptr, ptr %buffer_end_, align 8
  %sub.ptr.lhs.cast = ptrtoint ptr %0 to i64
  %sub.ptr.rhs.cast = ptrtoint ptr %ptr to i64
  %sub.ptr.sub = sub i64 %sub.ptr.lhs.cast, %sub.ptr.rhs.cast
  %limit_ = getelementptr inbounds nuw i8, ptr %this, i64 28
  %1 = load i32, ptr %limit_, align 4
  %conv2 = sext i32 %1 to i64
  %add = add nsw i64 %sub.ptr.sub, %conv2
  %cmp.not = icmp slt i64 %add, %conv
  br i1 %cmp.not, label %if.end, label %if.then

if.then:                                          ; preds = %entry
  %call = tail call noundef i64 @_ZNKSt7__cxx1112basic_stringIcSt11char_traitsIcESaIcEE4sizeEv(ptr noundef nonnull align 8 dereferenceable(32) %str) #18
  %.sroa.speculated = tail call i32 @llvm.smin.i32(i32 %size, i32 50000000)
  %conv5 = sext i32 %.sroa.speculated to i64
  %add6 = add i64 %call, %conv5
  tail call void @_ZNSt7__cxx1112basic_stringIcSt11char_traitsIcESaIcEE7reserveEm(ptr noundef nonnull align 8 dereferenceable(32) %str, i64 noundef %add6)
  %.pre = load ptr, ptr %buffer_end_, align 8
  br label %if.end

if.end:                                           ; preds = %if.then, %entry
  %2 = phi ptr [ %.pre, %if.then ], [ %0, %entry ]
  %add.ptr.i = getelementptr inbounds nuw i8, ptr %2, i64 16
  %sub.ptr.lhs.cast.i = ptrtoint ptr %add.ptr.i to i64
  %sub.ptr.sub.i = sub i64 %sub.ptr.lhs.cast.i, %sub.ptr.rhs.cast
  %conv.i = trunc i64 %sub.ptr.sub.i to i32
  %next_chunk_.i = getelementptr inbounds nuw i8, ptr %this, i64 16
  br label %do.body.i

do.body.i:                                        ; preds = %if.end8.i, %if.end
  %ptr.addr.0.i = phi ptr [ %ptr, %if.end ], [ %add.ptr9.i, %if.end8.i ]
  %size.addr.0.i = phi i32 [ %size, %if.end ], [ %sub.i, %if.end8.i ]
  %chunk_size.0.i = phi i32 [ %conv.i, %if.end ], [ %conv15.i, %if.end8.i ]
  %3 = load ptr, ptr %next_chunk_.i, align 8
  %cmp.i5 = icmp eq ptr %3, null
  br i1 %cmp.i5, label %"_ZN6google8protobuf8internal18EpsCopyInputStream10AppendSizeIZNS2_18ReadStringFallbackEPKciPNSt7__cxx1112basic_stringIcSt11char_traitsIcESaIcEEEE3$_0EES5_S5_iRKT_.exit", label %if.end.i

if.end.i:                                         ; preds = %do.body.i
  %conv.i.i = sext i32 %chunk_size.0.i to i64
  %call.i.i = tail call noundef nonnull align 8 dereferenceable(32) ptr @_ZNSt7__cxx1112basic_stringIcSt11char_traitsIcESaIcEE6appendEPKcm(ptr noundef nonnull align 8 dereferenceable(32) %str, ptr noundef %ptr.addr.0.i, i64 noundef %conv.i.i)
  %sub.i = sub nsw i32 %size.addr.0.i, %chunk_size.0.i
  %4 = load i32, ptr %limit_, align 4
  %cmp3.i = icmp slt i32 %4, 17
  br i1 %cmp3.i, label %"_ZN6google8protobuf8internal18EpsCopyInputStream10AppendSizeIZNS2_18ReadStringFallbackEPKciPNSt7__cxx1112basic_stringIcSt11char_traitsIcESaIcEEEE3$_0EES5_S5_iRKT_.exit", label %if.end5.i

if.end5.i:                                        ; preds = %if.end.i
  %call.i16.i = tail call noundef ptr @_ZN6google8protobuf8internal18EpsCopyInputStream10NextBufferEii(ptr noundef nonnull align 8 dereferenceable(88) %this, i32 noundef 0, i32 noundef -1)
  %cmp.i.i = icmp eq ptr %call.i16.i, null
  %5 = load ptr, ptr %buffer_end_, align 8
  br i1 %cmp.i.i, label %_ZN6google8protobuf8internal18EpsCopyInputStream4NextEv.exit.thread.i, label %if.end8.i

_ZN6google8protobuf8internal18EpsCopyInputStream4NextEv.exit.thread.i: ; preds = %if.end5.i
  %last_tag_minus_1_.i.i.i = getelementptr inbounds nuw i8, ptr %this, i64 80
  store i32 1, ptr %last_tag_minus_1_.i.i.i, align 8
  store ptr %5, ptr %this, align 8
  br label %"_ZN6google8protobuf8internal18EpsCopyInputStream10AppendSizeIZNS2_18ReadStringFallbackEPKciPNSt7__cxx1112basic_stringIcSt11char_traitsIcESaIcEEEE3$_0EES5_S5_iRKT_.exit"

if.end8.i:                                        ; preds = %if.end5.i
  %sub.ptr.lhs.cast.i.i = ptrtoint ptr %5 to i64
  %sub.ptr.rhs.cast.i.i = ptrtoint ptr %call.i16.i to i64
  %sub.ptr.sub.neg.i.i = sub i64 %sub.ptr.rhs.cast.i.i, %sub.ptr.lhs.cast.i.i
  %6 = load i32, ptr %limit_, align 4
  %7 = trunc i64 %sub.ptr.sub.neg.i.i to i32
  %conv3.i.i = add i32 %6, %7
  store i32 %conv3.i.i, ptr %limit_, align 4
  %.sroa.speculated.i.i = tail call i32 @llvm.smin.i32(i32 %conv3.i.i, i32 0)
  %idx.ext.i.i = sext i32 %.sroa.speculated.i.i to i64
  %add.ptr.i.i = getelementptr inbounds i8, ptr %5, i64 %idx.ext.i.i
  store ptr %add.ptr.i.i, ptr %this, align 8
  %add.ptr9.i = getelementptr inbounds nuw i8, ptr %call.i16.i, i64 16
  %add.ptr11.i = getelementptr inbounds nuw i8, ptr %5, i64 16
  %sub.ptr.lhs.cast12.i = ptrtoint ptr %add.ptr11.i to i64
  %sub.ptr.rhs.cast13.i = ptrtoint ptr %add.ptr9.i to i64
  %sub.ptr.sub14.i = sub i64 %sub.ptr.lhs.cast12.i, %sub.ptr.rhs.cast13.i
  %conv15.i = trunc i64 %sub.ptr.sub14.i to i32
  %cmp16.i = icmp sgt i32 %sub.i, %conv15.i
  br i1 %cmp16.i, label %do.body.i, label %do.end.i, !llvm.loop !12

do.end.i:                                         ; preds = %if.end8.i
  %conv.i17.i = sext i32 %sub.i to i64
  %call.i18.i = tail call noundef nonnull align 8 dereferenceable(32) ptr @_ZNSt7__cxx1112basic_stringIcSt11char_traitsIcESaIcEE6appendEPKcm(ptr noundef nonnull align 8 dereferenceable(32) %str, ptr noundef nonnull %add.ptr9.i, i64 noundef %conv.i17.i)
  %add.ptr18.i = getelementptr inbounds i8, ptr %add.ptr9.i, i64 %conv.i17.i
  br label %"_ZN6google8protobuf8internal18EpsCopyInputStream10AppendSizeIZNS2_18ReadStringFallbackEPKciPNSt7__cxx1112basic_stringIcSt11char_traitsIcESaIcEEEE3$_0EES5_S5_iRKT_.exit"

"_ZN6google8protobuf8internal18EpsCopyInputStream10AppendSizeIZNS2_18ReadStringFallbackEPKciPNSt7__cxx1112basic_stringIcSt11char_traitsIcESaIcEEEE3$_0EES5_S5_iRKT_.exit": ; preds = %do.body.i, %if.end.i, %_ZN6google8protobuf8internal18EpsCopyInputStream4NextEv.exit.thread.i, %do.end.i
  %retval.0.i = phi ptr [ %add.ptr18.i, %do.end.i ], [ null, %_ZN6google8protobuf8internal18EpsCopyInputStream4NextEv.exit.thread.i ], [ null, %if.end.i ], [ null, %do.body.i ]
  ret ptr %retval.0.i
}